; Function Attrs: mustprogress uwtable
define hidden noundef zeroext i1 @_ZNK12mpff_manager15is_power_of_twoERK4mpff(ptr noundef nonnull readonly align 8 captures(none) dereferenceable(89) %0, ptr noundef nonnull readonly align 4 captures(none) dereferenceable(8) %1) local_unnamed_addr #3 align 2 {
  %3 = getelementptr inbounds nuw i8, ptr %0, i64 8
  %4 = load ptr, ptr %3, align 8, !tbaa !3
  %5 = load i32, ptr %1, align 4
  %6 = lshr i32 %5, 1
  %7 = load i32, ptr %0, align 8, !tbaa !13
  %8 = mul i32 %6, %7
  %9 = zext i32 %8 to i64
  %10 = getelementptr inbounds nuw i32, ptr %4, i64 %9
  %11 = and i32 %5, 1
  %12 = icmp eq i32 %11, 0
  %13 = icmp ugt i32 %5, 1
  %14 = and i1 %13, %12
  br i1 %14, label %15, label %30

15:                                               ; preds = %2
  %16 = getelementptr inbounds nuw i8, ptr %1, i64 4
  %17 = load i32, ptr %16, align 4, !tbaa !35
  %18 = getelementptr inbounds nuw i8, ptr %0, i64 4
  %19 = load i32, ptr %18, align 4, !tbaa !18
  %20 = sub nsw i32 0, %19
  %21 = icmp sgt i32 %17, %20
  br i1 %21, label %22, label %30

22:                                               ; preds = %15
  %23 = add i32 %7, -1
  %24 = zext i32 %23 to i64
  %25 = getelementptr inbounds nuw i32, ptr %10, i64 %24
  %26 = load i32, ptr %25, align 4, !tbaa !21
  %27 = icmp eq i32 %26, -2147483648
  br i1 %27, label %28, label %30

28:                                               ; preds = %22
  %29 = tail call noundef zeroext i1 @_Z7is_zerojPKj(i32 noundef %23, ptr noundef nonnull %10)
  br label %30

30:                                               ; preds = %28, %22, %15, %2
  %31 = phi i1 [ false, %22 ], [ false, %15 ], [ false, %2 ], [ %29, %28 ]
  ret i1 %31
}